target datalayout = "e-m:e-p270:32:32-p271:32:32-p272:64:64-i64:64-i128:128-f80:128-n8:16:32:64-S128"
target triple = "x86_64-pc-linux-gnu"

%struct.expert_field = type { i32, i32 }

@ei_gsm_a_gm_extraneous_data = internal global %struct.expert_field zeroinitializer, align 4
@hf_gsm_a_spare_bits = external global i32, align 4

; Function Attrs: null_pointer_is_valid sspstrong uwtable
define hidden zeroext i16 @de_sm_mbms_prot_conf_opt(ptr noundef %0, ptr noundef %1, ptr noundef %2, i32 noundef %3, i32 noundef %4, ptr noundef %5, i32 noundef %6) #1 {
  %8 = alloca ptr, align 8
  %9 = alloca ptr, align 8
  %10 = alloca ptr, align 8
  %11 = alloca i32, align 4
  %12 = alloca i32, align 4
  %13 = alloca ptr, align 8
  %14 = alloca i32, align 4
  %15 = alloca i32, align 4
  store ptr %0, ptr %8, align 8
  store ptr %1, ptr %9, align 8
  store ptr %2, ptr %10, align 8
  store i32 %3, ptr %11, align 4
  store i32 %4, ptr %12, align 4
  store ptr %5, ptr %13, align 8
  store i32 %6, ptr %14, align 4
  call void @llvm.lifetime.start.p0(i64 4, ptr %15) #6
  %16 = load i32, ptr %11, align 4
  store i32 %16, ptr %15, align 4
  %17 = load ptr, ptr %9, align 8
  %18 = load i32, ptr @hf_gsm_a_spare_bits, align 4
  %19 = load ptr, ptr %8, align 8
  %20 = load i32, ptr %15, align 4
  %21 = shl i32 %20, 3
  %22 = call ptr @proto_tree_add_bits_item(ptr noundef %17, i32 noundef %18, ptr noundef %19, i32 noundef %21, i32 noundef 8, i32 noundef 0)
  %23 = load i32, ptr %15, align 4
  %24 = add i32 %23, 1
  store i32 %24, ptr %15, align 4
  %25 = load i32, ptr %12, align 4
  %26 = load i32, ptr %15, align 4
  %27 = load i32, ptr %11, align 4
  %28 = sub i32 %26, %27
  %29 = icmp ugt i32 %25, %28
  br i1 %29, label %30, label %48

30:                                               ; preds = %7
  %31 = load ptr, ptr %9, align 8
  %32 = load ptr, ptr %10, align 8
  %33 = load ptr, ptr %8, align 8
  %34 = load i32, ptr %15, align 4
  %35 = load i32, ptr %12, align 4
  %36 = load i32, ptr %15, align 4
  %37 = load i32, ptr %11, align 4
  %38 = sub i32 %36, %37
  %39 = sub i32 %35, %38
  %40 = call ptr @proto_tree_add_expert(ptr noundef %31, ptr noundef %32, ptr noundef @ei_gsm_a_gm_extraneous_data, ptr noundef %33, i32 noundef %34, i32 noundef %39)
  %41 = load i32, ptr %12, align 4
  %42 = load i32, ptr %15, align 4
  %43 = load i32, ptr %11, align 4
  %44 = sub i32 %42, %43
  %45 = sub i32 %41, %44
  %46 = load i32, ptr %15, align 4
  %47 = add i32 %46, %45
  store i32 %47, ptr %15, align 4
  br label %48

48:                                               ; preds = %30, %7
  %49 = load i32, ptr %15, align 4
  %50 = load i32, ptr %11, align 4
  %51 = sub i32 %49, %50
  %52 = trunc i32 %51 to i16
  call void @llvm.lifetime.end.p0(i64 4, ptr %15) #6
  ret i16 %52
}